target datalayout = "e-m:e-p270:32:32-p271:32:32-p272:64:64-i64:64-i128:128-f80:128-n8:16:32:64-S128"
target triple = "x86_64-unknown-linux-gnu"

%"class.icu_75::numparse::impl::SymbolMatcher" = type { %"class.icu_75::numparse::impl::NumberParseMatcher", %"class.icu_75::UnicodeString", ptr }
%"class.icu_75::numparse::impl::NumberParseMatcher" = type { ptr }
%"class.icu_75::UnicodeString" = type { %"class.icu_75::Replaceable", %"union.icu_75::UnicodeString::StackBufferOrFields" }
%"class.icu_75::Replaceable" = type { %"class.icu_75::UObject" }
%"class.icu_75::UObject" = type { ptr }
%"union.icu_75::UnicodeString::StackBufferOrFields" = type { %struct.anon.0, [32 x i8] }
%struct.anon.0 = type { i16, i32, i32, ptr }

; Function Attrs: mustprogress uwtable
define noundef zeroext i1 @_ZNK6icu_758numparse4impl13SymbolMatcher9smokeTestERKNS_13StringSegmentE(ptr noundef nonnull align 8 dereferenceable(80) %this, ptr noundef nonnull align 8 dereferenceable(17) %segment) unnamed_addr #0 align 2 {
entry:
  %this.addr = alloca ptr, align 8
  %segment.addr = alloca ptr, align 8
  store ptr %this, ptr %this.addr, align 8
  store ptr %segment, ptr %segment.addr, align 8
  %this1 = load ptr, ptr %this.addr, align 8
  %0 = load ptr, ptr %segment.addr, align 8
  %fUniSet = getelementptr inbounds %"class.icu_75::numparse::impl::SymbolMatcher", ptr %this1, i32 0, i32 2
  %1 = load ptr, ptr %fUniSet, align 8
  %call = call noundef zeroext i1 @_ZNK6icu_7513StringSegment10startsWithERKNS_10UnicodeSetE(ptr noundef nonnull align 8 dereferenceable(17) %0, ptr noundef nonnull align 8 dereferenceable(200) %1)
  br i1 %call, label %lor.end, label %lor.rhs

lor.rhs:                                          ; preds = %entry
  %2 = load ptr, ptr %segment.addr, align 8
  %fString = getelementptr inbounds %"class.icu_75::numparse::impl::SymbolMatcher", ptr %this1, i32 0, i32 1
  %call2 = call noundef zeroext i1 @_ZNK6icu_7513StringSegment10startsWithERKNS_13UnicodeStringE(ptr noundef nonnull align 8 dereferenceable(17) %2, ptr noundef nonnull align 8 dereferenceable(64) %fString)
  br label %lor.end

lor.end:                                          ; preds = %lor.rhs, %entry
  %3 = phi i1 [ true, %entry ], [ %call2, %lor.rhs ]
  ret i1 %3
}