; Function Attrs: mustprogress uwtable
define noundef zeroext i1 @_ZNK6icu_758numparse4impl13SymbolMatcher9smokeTestERKNS_13StringSegmentE(ptr noundef nonnull align 8 dereferenceable(80) %this, ptr noundef nonnull align 8 dereferenceable(17) %segment) unnamed_addr #0 align 2 {
entry:
  %fUniSet = getelementptr inbounds i8, ptr %this, i64 72
  %0 = load ptr, ptr %fUniSet, align 8
  %call = tail call noundef zeroext i1 @_ZNK6icu_7513StringSegment10startsWithERKNS_10UnicodeSetE(ptr noundef nonnull align 8 dereferenceable(17) %segment, ptr noundef nonnull align 8 dereferenceable(200) %0)
  br i1 %call, label %lor.end, label %lor.rhs

lor.rhs:                                          ; preds = %entry
  %fString = getelementptr inbounds i8, ptr %this, i64 8
  %call2 = tail call noundef zeroext i1 @_ZNK6icu_7513StringSegment10startsWithERKNS_13UnicodeStringE(ptr noundef nonnull align 8 dereferenceable(17) %segment, ptr noundef nonnull align 8 dereferenceable(64) %fString)
  br label %lor.end

lor.end:                                          ; preds = %lor.rhs, %entry
  %1 = phi i1 [ true, %entry ], [ %call2, %lor.rhs ]
  ret i1 %1
}